target datalayout = "e-m:e-p270:32:32-p271:32:32-p272:64:64-i64:64-i128:128-f80:128-n8:16:32:64-S128"
target triple = "x86_64-pc-linux-gnu"

%struct.expert_field = type { i32, i32 }
%struct._packet_info = type { ptr, ptr, i32, i32, %struct.nstime_t, %struct.nstime_t, %struct.nstime_t, i8, ptr, ptr, ptr, ptr, %struct._address, %struct._address, %struct._address, %struct._address, %struct._address, %struct._address, i32, ptr, i8, [3 x i8], %struct.anon, i32, i32, i32, i32, ptr, i8, ptr, ptr, i16, i16, i32, i32, i16, i32, i32, ptr, ptr, ptr, i8, i8, i16, i16, i16, i32, i16, i16, ptr, ptr, ptr, ptr, ptr, i32, i32 }
%struct.nstime_t = type { i64, i32 }
%struct._address = type { i32, i32, ptr, ptr }
%struct.anon = type { i8, [3 x i8] }
%struct._diam_ctx_t = type { ptr, ptr, ptr }
%struct._proto_node = type { ptr, ptr, ptr, ptr, ptr, ptr, ptr }
%struct._diam_avp_t = type { i32, ptr, ptr, i32, i32, ptr }

@.str.70 = private unnamed_addr constant [3 x i8] c": \00", align 1
@ei_diameter_avp_len = internal global %struct.expert_field zeroinitializer, align 4
@.str.136 = private unnamed_addr constant [12 x i8] c"[Malformed]\00", align 1
@.str.171 = private unnamed_addr constant [38 x i8] c"Bad Timestamp Length: %d instead of 4\00", align 1

; Function Attrs: null_pointer_is_valid sspstrong uwtable
define internal ptr @time_avp(ptr noundef %0, ptr noundef %1, ptr noundef %2, ptr noundef %3) #0 {
  %5 = alloca ptr, align 8
  %6 = alloca ptr, align 8
  %7 = alloca ptr, align 8
  %8 = alloca ptr, align 8
  %9 = alloca ptr, align 8
  %10 = alloca i32, align 4
  %11 = alloca ptr, align 8
  %12 = alloca ptr, align 8
  %13 = alloca i32, align 4
  store ptr %0, ptr %6, align 8
  store ptr %1, ptr %7, align 8
  store ptr %2, ptr %8, align 8
  store ptr %3, ptr %9, align 8
  call void @llvm.lifetime.start.p0(i64 4, ptr %10) #14
  %14 = load ptr, ptr %8, align 8
  %15 = call i32 @tvb_reported_length(ptr noundef %14)
  store i32 %15, ptr %10, align 4
  call void @llvm.lifetime.start.p0(i64 8, ptr %11) #14
  store ptr null, ptr %11, align 8
  call void @llvm.lifetime.start.p0(i64 8, ptr %12) #14
  %16 = load i32, ptr %10, align 4
  %17 = icmp ne i32 %16, 4
  br i1 %17, label %18, label %28

18:                                               ; preds = %4
  %19 = load ptr, ptr %6, align 8
  %20 = getelementptr inbounds nuw %struct._diam_ctx_t, ptr %19, i32 0, i32 0
  %21 = load ptr, ptr %20, align 8
  %22 = load ptr, ptr %6, align 8
  %23 = getelementptr inbounds nuw %struct._diam_ctx_t, ptr %22, i32 0, i32 1
  %24 = load ptr, ptr %23, align 8
  %25 = load ptr, ptr %8, align 8
  %26 = load i32, ptr %10, align 4
  %27 = call ptr (ptr, ptr, ptr, ptr, i32, i32, ptr, ...) @proto_tree_add_expert_format(ptr noundef %21, ptr noundef %24, ptr noundef @ei_diameter_avp_len, ptr noundef %25, i32 noundef 0, i32 noundef 4, ptr noundef @.str.171, i32 noundef %26)
  store ptr @.str.136, ptr %5, align 8
  store i32 1, ptr %13, align 4
  br label %57

28:                                               ; preds = %4
  %29 = load ptr, ptr %6, align 8
  %30 = getelementptr inbounds nuw %struct._diam_ctx_t, ptr %29, i32 0, i32 0
  %31 = load ptr, ptr %30, align 8
  %32 = icmp ne ptr %31, null
  br i1 %32, label %33, label %55

33:                                               ; preds = %28
  %34 = load ptr, ptr %6, align 8
  %35 = getelementptr inbounds nuw %struct._diam_ctx_t, ptr %34, i32 0, i32 1
  %36 = load ptr, ptr %35, align 8
  %37 = getelementptr inbounds nuw %struct._packet_info, ptr %36, i32 0, i32 51
  %38 = load ptr, ptr %37, align 8
  %39 = call noalias ptr @wmem_alloc(ptr noundef %38, i64 noundef 241) #15
  store ptr %39, ptr %11, align 8
  %40 = load ptr, ptr %6, align 8
  %41 = getelementptr inbounds nuw %struct._diam_ctx_t, ptr %40, i32 0, i32 0
  %42 = load ptr, ptr %41, align 8
  %43 = load ptr, ptr %7, align 8
  %44 = getelementptr inbounds nuw %struct._diam_avp_t, ptr %43, i32 0, i32 4
  %45 = load i32, ptr %44, align 4
  %46 = load ptr, ptr %8, align 8
  %47 = call ptr @proto_tree_add_item(ptr noundef %42, i32 noundef %45, ptr noundef %46, i32 noundef 0, i32 noundef 4, i32 noundef 24)
  store ptr %47, ptr %12, align 8
  %48 = load ptr, ptr %12, align 8
  %49 = getelementptr inbounds nuw %struct._proto_node, ptr %48, i32 0, i32 5
  %50 = load ptr, ptr %49, align 8
  %51 = load ptr, ptr %11, align 8
  call void @proto_item_fill_label(ptr noundef %50, ptr noundef %51, ptr noundef null)
  %52 = load ptr, ptr %11, align 8
  %53 = call ptr @strstr(ptr noundef %52, ptr noundef @.str.70) #17
  %54 = getelementptr i8, ptr %53, i64 2
  store ptr %54, ptr %11, align 8
  br label %55

55:                                               ; preds = %33, %28
  %56 = load ptr, ptr %11, align 8
  store ptr %56, ptr %5, align 8
  store i32 1, ptr %13, align 4
  br label %57

57:                                               ; preds = %55, %18
  call void @llvm.lifetime.end.p0(i64 8, ptr %12) #14
  call void @llvm.lifetime.end.p0(i64 8, ptr %11) #14
  call void @llvm.lifetime.end.p0(i64 4, ptr %10) #14
  %58 = load ptr, ptr %5, align 8
  ret ptr %58
}