; Function Attrs: null_pointer_is_valid sspstrong uwtable
define internal ptr @time_avp(ptr noundef readonly captures(none) %0, ptr noundef readonly captures(none) %1, ptr noundef %2, ptr readnone captures(none) %3) #0 {
  %5 = tail call i32 @tvb_reported_length(ptr noundef %2)
  %.not = icmp eq i32 %5, 4
  %6 = load ptr, ptr %0, align 8
  br i1 %.not, label %11, label %7

7:                                                ; preds = %4
  %8 = getelementptr inbounds nuw i8, ptr %0, i64 8
  %9 = load ptr, ptr %8, align 8
  %10 = tail call ptr (ptr, ptr, ptr, ptr, i32, i32, ptr, ...) @proto_tree_add_expert_format(ptr noundef %6, ptr noundef %9, ptr noundef nonnull @ei_diameter_avp_len, ptr noundef %2, i32 noundef 0, i32 noundef 4, ptr noundef nonnull @.str.171, i32 noundef %5)
  br label %26

11:                                               ; preds = %4
  %.not17 = icmp eq ptr %6, null
  br i1 %.not17, label %26, label %12

12:                                               ; preds = %11
  %13 = getelementptr inbounds nuw i8, ptr %0, i64 8
  %14 = load ptr, ptr %13, align 8
  %15 = getelementptr inbounds nuw i8, ptr %14, i64 408
  %16 = load ptr, ptr %15, align 8
  %17 = tail call noalias dereferenceable_or_null(241) ptr @wmem_alloc(ptr noundef %16, i64 noundef 241) #15
  %18 = load ptr, ptr %0, align 8
  %19 = getelementptr inbounds nuw i8, ptr %1, i64 28
  %20 = load i32, ptr %19, align 4
  %21 = tail call ptr @proto_tree_add_item(ptr noundef %18, i32 noundef %20, ptr noundef %2, i32 noundef 0, i32 noundef 4, i32 noundef 24)
  %22 = getelementptr inbounds nuw i8, ptr %21, i64 40
  %23 = load ptr, ptr %22, align 8
  tail call void @proto_item_fill_label(ptr noundef %23, ptr noundef %17, ptr noundef null)
  %24 = tail call ptr @strstr(ptr noundef %17, ptr noundef nonnull dereferenceable(1) @.str.70) #18
  %25 = getelementptr i8, ptr %24, i64 2
  br label %26

26:                                               ; preds = %11, %12, %7
  %.0 = phi ptr [ @.str.136, %7 ], [ %25, %12 ], [ null, %11 ]
  ret ptr %.0
}